target datalayout = "e-m:e-p270:32:32-p271:32:32-p272:64:64-i64:64-i128:128-f80:128-n8:16:32:64-S128"
target triple = "x86_64-pc-linux-gnu"

%struct.strbuf = type { i64, i64, ptr }

; Function Attrs: inlinehint nounwind uwtable
define internal i64 @strbuf_avail(ptr noundef %0) #3 {
  %2 = alloca ptr, align 8
  store ptr %0, ptr %2, align 8, !tbaa !4
  %3 = load ptr, ptr %2, align 8, !tbaa !4
  %4 = getelementptr inbounds nuw %struct.strbuf, ptr %3, i32 0, i32 0
  %5 = load i64, ptr %4, align 8, !tbaa !37
  %6 = icmp ne i64 %5, 0
  br i1 %6, label %7, label %16

7:                                                ; preds = %1
  %8 = load ptr, ptr %2, align 8, !tbaa !4
  %9 = getelementptr inbounds nuw %struct.strbuf, ptr %8, i32 0, i32 0
  %10 = load i64, ptr %9, align 8, !tbaa !37
  %11 = load ptr, ptr %2, align 8, !tbaa !4
  %12 = getelementptr inbounds nuw %struct.strbuf, ptr %11, i32 0, i32 1
  %13 = load i64, ptr %12, align 8, !tbaa !21
  %14 = sub i64 %10, %13
  %15 = sub i64 %14, 1
  br label %17

16:                                               ; preds = %1
  br label %17

17:                                               ; preds = %16, %7
  %18 = phi i64 [ %15, %7 ], [ 0, %16 ]
  ret i64 %18
}

; Function Attrs: inlinehint nounwind uwtable
define internal void @strbuf_addch(ptr noundef %0, i32 noundef %1) #3 {
  %3 = alloca ptr, align 8
  %4 = alloca i32, align 4
  store ptr %0, ptr %3, align 8, !tbaa !4
  store i32 %1, ptr %4, align 4, !tbaa !19
  %5 = load ptr, ptr %3, align 8, !tbaa !4
  %6 = call i64 @strbuf_avail(ptr noundef %5)
  %7 = icmp ne i64 %6, 0
  br i1 %7, label %10, label %8

8:                                                ; preds = %2
  %9 = load ptr, ptr %3, align 8, !tbaa !4
  call void @strbuf_grow(ptr noundef %9, i64 noundef 1)
  br label %10

10:                                               ; preds = %8, %2
  %11 = load i32, ptr %4, align 4, !tbaa !19
  %12 = trunc i32 %11 to i8
  %13 = load ptr, ptr %3, align 8, !tbaa !4
  %14 = getelementptr inbounds nuw %struct.strbuf, ptr %13, i32 0, i32 2
  %15 = load ptr, ptr %14, align 8, !tbaa !11
  %16 = load ptr, ptr %3, align 8, !tbaa !4
  %17 = getelementptr inbounds nuw %struct.strbuf, ptr %16, i32 0, i32 1
  %18 = load i64, ptr %17, align 8, !tbaa !21
  %19 = add i64 %18, 1
  store i64 %19, ptr %17, align 8, !tbaa !21
  %20 = getelementptr inbounds nuw i8, ptr %15, i64 %18
  store i8 %12, ptr %20, align 1, !tbaa !14
  %21 = load ptr, ptr %3, align 8, !tbaa !4
  %22 = getelementptr inbounds nuw %struct.strbuf, ptr %21, i32 0, i32 2
  %23 = load ptr, ptr %22, align 8, !tbaa !11
  %24 = load ptr, ptr %3, align 8, !tbaa !4
  %25 = getelementptr inbounds nuw %struct.strbuf, ptr %24, i32 0, i32 1
  %26 = load i64, ptr %25, align 8, !tbaa !21
  %27 = getelementptr inbounds nuw i8, ptr %23, i64 %26
  store i8 0, ptr %27, align 1, !tbaa !14
  ret void
}

; Function Attrs: nounwind uwtable
define dso_local void @python_quote_buf(ptr noundef %0, ptr noundef %1) #0 {
  %3 = alloca ptr, align 8
  %4 = alloca ptr, align 8
  %5 = alloca i8, align 1
  %6 = alloca i8, align 1
  %7 = alloca i8, align 1
  %8 = alloca i8, align 1
  store ptr %0, ptr %3, align 8, !tbaa !4
  store ptr %1, ptr %4, align 8, !tbaa !9
  call void @llvm.lifetime.start.p0(i64 1, ptr %5) #9
  store i8 39, ptr %5, align 1, !tbaa !14
  call void @llvm.lifetime.start.p0(i64 1, ptr %6) #9
  store i8 92, ptr %6, align 1, !tbaa !14
  call void @llvm.lifetime.start.p0(i64 1, ptr %7) #9
  store i8 10, ptr %7, align 1, !tbaa !14
  call void @llvm.lifetime.start.p0(i64 1, ptr %8) #9
  %9 = load ptr, ptr %3, align 8, !tbaa !4
  call void @strbuf_addch(ptr noundef %9, i32 noundef 39)
  br label %10

10:                                               ; preds = %32, %19, %2
  %11 = load ptr, ptr %4, align 8, !tbaa !9
  %12 = getelementptr inbounds nuw i8, ptr %11, i32 1
  store ptr %12, ptr %4, align 8, !tbaa !9
  %13 = load i8, ptr %11, align 1, !tbaa !14
  store i8 %13, ptr %8, align 1, !tbaa !14
  %14 = icmp ne i8 %13, 0
  br i1 %14, label %15, label %36

15:                                               ; preds = %10
  %16 = load i8, ptr %8, align 1, !tbaa !14
  %17 = sext i8 %16 to i32
  %18 = icmp eq i32 %17, 10
  br i1 %18, label %19, label %22

19:                                               ; preds = %15
  %20 = load ptr, ptr %3, align 8, !tbaa !4
  call void @strbuf_addch(ptr noundef %20, i32 noundef 92)
  %21 = load ptr, ptr %3, align 8, !tbaa !4
  call void @strbuf_addch(ptr noundef %21, i32 noundef 110)
  br label %10, !llvm.loop !40

22:                                               ; preds = %15
  %23 = load i8, ptr %8, align 1, !tbaa !14
  %24 = sext i8 %23 to i32
  %25 = icmp eq i32 %24, 39
  br i1 %25, label %30, label %26

26:                                               ; preds = %22
  %27 = load i8, ptr %8, align 1, !tbaa !14
  %28 = sext i8 %27 to i32
  %29 = icmp eq i32 %28, 92
  br i1 %29, label %30, label %32

30:                                               ; preds = %26, %22
  %31 = load ptr, ptr %3, align 8, !tbaa !4
  call void @strbuf_addch(ptr noundef %31, i32 noundef 92)
  br label %32

32:                                               ; preds = %30, %26
  %33 = load ptr, ptr %3, align 8, !tbaa !4
  %34 = load i8, ptr %8, align 1, !tbaa !14
  %35 = sext i8 %34 to i32
  call void @strbuf_addch(ptr noundef %33, i32 noundef %35)
  br label %10, !llvm.loop !40

36:                                               ; preds = %10
  %37 = load ptr, ptr %3, align 8, !tbaa !4
  call void @strbuf_addch(ptr noundef %37, i32 noundef 39)
  call void @llvm.lifetime.end.p0(i64 1, ptr %8) #9
  call void @llvm.lifetime.end.p0(i64 1, ptr %7) #9
  call void @llvm.lifetime.end.p0(i64 1, ptr %6) #9
  call void @llvm.lifetime.end.p0(i64 1, ptr %5) #9
  ret void
}