; Function Attrs: nounwind uwtable
define dso_local void @python_quote_buf(ptr noundef %0, ptr noundef readonly captures(none) %1) local_unnamed_addr #0 {
  %3 = load i64, ptr %0, align 8, !tbaa !11
  %.not.i.i = icmp eq i64 %3, 0
  br i1 %.not.i.i, label %strbuf_avail.exit.thread.i, label %strbuf_avail.exit.i

strbuf_avail.exit.i:                              ; preds = %2
  %4 = getelementptr inbounds nuw i8, ptr %0, i64 8
  %5 = load i64, ptr %4, align 8, !tbaa !12
  %.neg.i = add i64 %5, 1
  %.not.i = icmp eq i64 %3, %.neg.i
  br i1 %.not.i, label %strbuf_avail.exit.thread.i, label %strbuf_addch.exit

strbuf_avail.exit.thread.i:                       ; preds = %strbuf_avail.exit.i, %2
  tail call void @strbuf_grow(ptr noundef nonnull %0, i64 noundef 1) #12
  %.phi.trans.insert.i = getelementptr inbounds nuw i8, ptr %0, i64 8
  %.pre.i = load i64, ptr %.phi.trans.insert.i, align 8, !tbaa !12
  %.pre7.i = add i64 %.pre.i, 1
  br label %strbuf_addch.exit

strbuf_addch.exit:                                ; preds = %strbuf_avail.exit.i, %strbuf_avail.exit.thread.i
  %.pre-phi.i = phi i64 [ %.pre7.i, %strbuf_avail.exit.thread.i ], [ %.neg.i, %strbuf_avail.exit.i ]
  %6 = phi i64 [ %.pre.i, %strbuf_avail.exit.thread.i ], [ %5, %strbuf_avail.exit.i ]
  %7 = getelementptr inbounds nuw i8, ptr %0, i64 16
  %8 = load ptr, ptr %7, align 8, !tbaa !4
  %9 = getelementptr inbounds nuw i8, ptr %0, i64 8
  store i64 %.pre-phi.i, ptr %9, align 8, !tbaa !12
  %10 = getelementptr inbounds nuw i8, ptr %8, i64 %6
  store i8 39, ptr %10, align 1, !tbaa !13
  br label %11

11:                                               ; preds = %.backedge, %strbuf_addch.exit
  %.0 = phi ptr [ %1, %strbuf_addch.exit ], [ %15, %.backedge ]
  %12 = load ptr, ptr %7, align 8, !tbaa !4
  %13 = load i64, ptr %9, align 8, !tbaa !12
  %14 = getelementptr inbounds nuw i8, ptr %12, i64 %13
  store i8 0, ptr %14, align 1, !tbaa !13
  %15 = getelementptr inbounds nuw i8, ptr %.0, i64 1
  %16 = load i8, ptr %.0, align 1, !tbaa !13
  switch i8 %16, label %39 [
    i8 0, label %42
    i8 10, label %17
    i8 92, label %30
    i8 39, label %30
  ]

17:                                               ; preds = %11
  %18 = load i64, ptr %0, align 8, !tbaa !11
  %.not.i.i14 = icmp eq i64 %18, 0
  br i1 %.not.i.i14, label %strbuf_avail.exit.thread.i19, label %strbuf_avail.exit.i15

strbuf_avail.exit.i15:                            ; preds = %17
  %19 = load i64, ptr %9, align 8, !tbaa !12
  %.neg.i16 = add i64 %19, 1
  %.not.i17 = icmp eq i64 %18, %.neg.i16
  br i1 %.not.i17, label %strbuf_avail.exit.thread.i19, label %strbuf_addch.exit23

strbuf_avail.exit.thread.i19:                     ; preds = %strbuf_avail.exit.i15, %17
  tail call void @strbuf_grow(ptr noundef nonnull %0, i64 noundef 1) #12
  %.pre.i21 = load i64, ptr %9, align 8, !tbaa !12
  %.pre7.i22 = add i64 %.pre.i21, 1
  br label %strbuf_addch.exit23

strbuf_addch.exit23:                              ; preds = %strbuf_avail.exit.i15, %strbuf_avail.exit.thread.i19
  %.pre-phi.i18 = phi i64 [ %.pre7.i22, %strbuf_avail.exit.thread.i19 ], [ %.neg.i16, %strbuf_avail.exit.i15 ]
  %20 = phi i64 [ %.pre.i21, %strbuf_avail.exit.thread.i19 ], [ %19, %strbuf_avail.exit.i15 ]
  %21 = load ptr, ptr %7, align 8, !tbaa !4
  store i64 %.pre-phi.i18, ptr %9, align 8, !tbaa !12
  %22 = getelementptr inbounds nuw i8, ptr %21, i64 %20
  store i8 92, ptr %22, align 1, !tbaa !13
  %23 = load ptr, ptr %7, align 8, !tbaa !4
  %24 = load i64, ptr %9, align 8, !tbaa !12
  %25 = getelementptr inbounds nuw i8, ptr %23, i64 %24
  store i8 0, ptr %25, align 1, !tbaa !13
  %26 = load i64, ptr %0, align 8, !tbaa !11
  %.not.i.i24 = icmp eq i64 %26, 0
  br i1 %.not.i.i24, label %.backedge.sink.split, label %strbuf_avail.exit.i25

strbuf_avail.exit.i25:                            ; preds = %strbuf_addch.exit23
  %27 = load i64, ptr %9, align 8, !tbaa !12
  %.neg.i26 = add i64 %27, 1
  %.not.i27 = icmp eq i64 %26, %.neg.i26
  br i1 %.not.i27, label %.backedge.sink.split, label %.backedge

.backedge.sink.split:                             ; preds = %strbuf_addch.exit23, %strbuf_avail.exit.i25, %39, %strbuf_avail.exit.i45
  %.sink.ph = phi i8 [ %16, %strbuf_avail.exit.i45 ], [ %16, %39 ], [ 110, %strbuf_avail.exit.i25 ], [ 110, %strbuf_addch.exit23 ]
  tail call void @strbuf_grow(ptr noundef nonnull %0, i64 noundef 1) #12
  %.pre.i31 = load i64, ptr %9, align 8, !tbaa !12
  %.pre7.i32 = add i64 %.pre.i31, 1
  br label %.backedge

.backedge:                                        ; preds = %.backedge.sink.split, %strbuf_avail.exit.i25, %strbuf_avail.exit.i45
  %.pre-phi.i28.sink = phi i64 [ %.neg.i46, %strbuf_avail.exit.i45 ], [ %.neg.i26, %strbuf_avail.exit.i25 ], [ %.pre7.i32, %.backedge.sink.split ]
  %.sink68 = phi i64 [ %41, %strbuf_avail.exit.i45 ], [ %27, %strbuf_avail.exit.i25 ], [ %.pre.i31, %.backedge.sink.split ]
  %.sink = phi i8 [ %16, %strbuf_avail.exit.i45 ], [ 110, %strbuf_avail.exit.i25 ], [ %.sink.ph, %.backedge.sink.split ]
  %28 = load ptr, ptr %7, align 8, !tbaa !4
  store i64 %.pre-phi.i28.sink, ptr %9, align 8, !tbaa !12
  %29 = getelementptr inbounds nuw i8, ptr %28, i64 %.sink68
  store i8 %.sink, ptr %29, align 1, !tbaa !13
  br label %11, !llvm.loop !30

30:                                               ; preds = %11, %11
  %31 = load i64, ptr %0, align 8, !tbaa !11
  %.not.i.i34 = icmp eq i64 %31, 0
  br i1 %.not.i.i34, label %strbuf_avail.exit.thread.i39, label %strbuf_avail.exit.i35

strbuf_avail.exit.i35:                            ; preds = %30
  %32 = load i64, ptr %9, align 8, !tbaa !12
  %.neg.i36 = add i64 %32, 1
  %.not.i37 = icmp eq i64 %31, %.neg.i36
  br i1 %.not.i37, label %strbuf_avail.exit.thread.i39, label %strbuf_addch.exit43

strbuf_avail.exit.thread.i39:                     ; preds = %strbuf_avail.exit.i35, %30
  tail call void @strbuf_grow(ptr noundef nonnull %0, i64 noundef 1) #12
  %.pre.i41 = load i64, ptr %9, align 8, !tbaa !12
  %.pre7.i42 = add i64 %.pre.i41, 1
  br label %strbuf_addch.exit43

strbuf_addch.exit43:                              ; preds = %strbuf_avail.exit.i35, %strbuf_avail.exit.thread.i39
  %.pre-phi.i38 = phi i64 [ %.pre7.i42, %strbuf_avail.exit.thread.i39 ], [ %.neg.i36, %strbuf_avail.exit.i35 ]
  %33 = phi i64 [ %.pre.i41, %strbuf_avail.exit.thread.i39 ], [ %32, %strbuf_avail.exit.i35 ]
  %34 = load ptr, ptr %7, align 8, !tbaa !4
  store i64 %.pre-phi.i38, ptr %9, align 8, !tbaa !12
  %35 = getelementptr inbounds nuw i8, ptr %34, i64 %33
  store i8 92, ptr %35, align 1, !tbaa !13
  %36 = load ptr, ptr %7, align 8, !tbaa !4
  %37 = load i64, ptr %9, align 8, !tbaa !12
  %38 = getelementptr inbounds nuw i8, ptr %36, i64 %37
  store i8 0, ptr %38, align 1, !tbaa !13
  br label %39

39:                                               ; preds = %11, %strbuf_addch.exit43
  %40 = load i64, ptr %0, align 8, !tbaa !11
  %.not.i.i44 = icmp eq i64 %40, 0
  br i1 %.not.i.i44, label %.backedge.sink.split, label %strbuf_avail.exit.i45

strbuf_avail.exit.i45:                            ; preds = %39
  %41 = load i64, ptr %9, align 8, !tbaa !12
  %.neg.i46 = add i64 %41, 1
  %.not.i47 = icmp eq i64 %40, %.neg.i46
  br i1 %.not.i47, label %.backedge.sink.split, label %.backedge

42:                                               ; preds = %11
  %43 = load i64, ptr %0, align 8, !tbaa !11
  %.not.i.i54 = icmp eq i64 %43, 0
  br i1 %.not.i.i54, label %strbuf_avail.exit.thread.i59, label %strbuf_avail.exit.i55

strbuf_avail.exit.i55:                            ; preds = %42
  %44 = load i64, ptr %9, align 8, !tbaa !12
  %.neg.i56 = add i64 %44, 1
  %.not.i57 = icmp eq i64 %43, %.neg.i56
  br i1 %.not.i57, label %strbuf_avail.exit.thread.i59, label %strbuf_addch.exit63

strbuf_avail.exit.thread.i59:                     ; preds = %strbuf_avail.exit.i55, %42
  tail call void @strbuf_grow(ptr noundef nonnull %0, i64 noundef 1) #12
  %.pre.i61 = load i64, ptr %9, align 8, !tbaa !12
  %.pre7.i62 = add i64 %.pre.i61, 1
  br label %strbuf_addch.exit63

strbuf_addch.exit63:                              ; preds = %strbuf_avail.exit.i55, %strbuf_avail.exit.thread.i59
  %.pre-phi.i58 = phi i64 [ %.pre7.i62, %strbuf_avail.exit.thread.i59 ], [ %.neg.i56, %strbuf_avail.exit.i55 ]
  %45 = phi i64 [ %.pre.i61, %strbuf_avail.exit.thread.i59 ], [ %44, %strbuf_avail.exit.i55 ]
  %46 = load ptr, ptr %7, align 8, !tbaa !4
  store i64 %.pre-phi.i58, ptr %9, align 8, !tbaa !12
  %47 = getelementptr inbounds nuw i8, ptr %46, i64 %45
  store i8 39, ptr %47, align 1, !tbaa !13
  %48 = load ptr, ptr %7, align 8, !tbaa !4
  %49 = load i64, ptr %9, align 8, !tbaa !12
  %50 = getelementptr inbounds nuw i8, ptr %48, i64 %49
  store i8 0, ptr %50, align 1, !tbaa !13
  ret void
}